target datalayout = "e-m:e-p270:32:32-p271:32:32-p272:64:64-i64:64-i128:128-f80:128-n8:16:32:64-S128"
target triple = "x86_64-pc-linux-gnu"

%"class.icu_77::SimpleNumberFormatFactory" = type { %"class.icu_77::NumberFormatFactory", i8, %"class.icu_77::UnicodeString" }
%"class.icu_77::NumberFormatFactory" = type { %"class.icu_77::UObject" }
%"class.icu_77::UObject" = type { ptr }
%"class.icu_77::UnicodeString" = type { %"class.icu_77::Replaceable", %"union.icu_77::UnicodeString::StackBufferOrFields" }
%"class.icu_77::Replaceable" = type { %"class.icu_77::UObject" }
%"union.icu_77::UnicodeString::StackBufferOrFields" = type { %struct.anon.0, [32 x i8] }
%struct.anon.0 = type { i16, i32, i32, ptr }

; Function Attrs: inlinehint mustprogress nounwind uwtable
define internal noundef signext i8 @_ZL9U_SUCCESS10UErrorCode(i32 noundef %0) #2 {
  %2 = alloca i32, align 4
  store i32 %0, ptr %2, align 4, !tbaa !15
  %3 = load i32, ptr %2, align 4, !tbaa !15
  %4 = icmp sle i32 %3, 0
  %5 = zext i1 %4 to i8
  ret i8 %5
}

; Function Attrs: mustprogress uwtable
define noundef ptr @_ZNK6icu_7725SimpleNumberFormatFactory15getSupportedIDsERiR10UErrorCode(ptr noundef nonnull align 8 dereferenceable(80) %0, ptr noundef nonnull align 4 dereferenceable(4) %1, ptr noundef nonnull align 4 dereferenceable(4) %2) unnamed_addr #1 align 2 {
  %4 = alloca ptr, align 8
  %5 = alloca ptr, align 8
  %6 = alloca ptr, align 8
  %7 = alloca ptr, align 8
  store ptr %0, ptr %5, align 8, !tbaa !25
  store ptr %1, ptr %6, align 8, !tbaa !20
  store ptr %2, ptr %7, align 8, !tbaa !22
  %8 = load ptr, ptr %5, align 8
  %9 = load ptr, ptr %7, align 8, !tbaa !22
  %10 = load i32, ptr %9, align 4, !tbaa !15
  %11 = call noundef signext i8 @_ZL9U_SUCCESS10UErrorCode(i32 noundef %10)
  %12 = icmp ne i8 %11, 0
  br i1 %12, label %13, label %16

13:                                               ; preds = %3
  %14 = load ptr, ptr %6, align 8, !tbaa !20
  store i32 1, ptr %14, align 4, !tbaa !14
  %15 = getelementptr inbounds nuw %"class.icu_77::SimpleNumberFormatFactory", ptr %8, i32 0, i32 2
  store ptr %15, ptr %4, align 8
  br label %18

16:                                               ; preds = %3
  %17 = load ptr, ptr %6, align 8, !tbaa !20
  store i32 0, ptr %17, align 4, !tbaa !14
  store ptr null, ptr %4, align 8
  br label %18

18:                                               ; preds = %16, %13
  %19 = load ptr, ptr %4, align 8
  ret ptr %19
}