; Function Attrs: mustprogress nofree norecurse nosync nounwind willreturn memory(argmem: readwrite) uwtable
define noundef ptr @_ZNK6icu_7725SimpleNumberFormatFactory15getSupportedIDsERiR10UErrorCode(ptr noundef nonnull readnone align 8 dereferenceable(80) %0, ptr noundef nonnull writeonly align 4 captures(none) dereferenceable(4) initializes((0, 4)) %1, ptr noundef nonnull readonly align 4 captures(none) dereferenceable(4) %2) unnamed_addr #15 align 2 {
  %4 = load i32, ptr %2, align 4, !tbaa !13
  %5 = icmp slt i32 %4, 1
  %6 = getelementptr inbounds nuw i8, ptr %0, i64 16
  %spec.select = zext i1 %5 to i32
  %spec.select5 = select i1 %5, ptr %6, ptr null
  store i32 %spec.select, ptr %1, align 4, !tbaa !12
  ret ptr %spec.select5
}